ARM GAS  /tmp/cckbUa1y.s 			page 1


   1              		.cpu cortex-m4
   2              		.eabi_attribute 27, 1
   3              		.eabi_attribute 28, 1
   4              		.eabi_attribute 20, 1
   5              		.eabi_attribute 21, 1
   6              		.eabi_attribute 23, 3
   7              		.eabi_attribute 24, 1
   8              		.eabi_attribute 25, 1
   9              		.eabi_attribute 26, 1
  10              		.eabi_attribute 30, 2
  11              		.eabi_attribute 34, 1
  12              		.eabi_attribute 18, 4
  13              		.file	"main.c"
  14              		.text
  15              	.Ltext0:
  16              		.cfi_sections	.debug_frame
  17              		.section	.text.startup.main,"ax",%progbits
  18              		.align	1
  19              		.p2align 4,,15
  20              		.global	main
  21              		.syntax unified
  22              		.thumb
  23              		.thumb_func
  24              		.fpu fpv4-sp-d16
  25              		.type	main, %function
  26              	main:
  27              	.LFB259:
  28              		.file 1 "main.c"
  29              		.loc 1 30 0
  30              		.cfi_startproc
  31              		@ args = 0, pretend = 0, frame = 104
  32              		@ frame_needed = 0, uses_anonymous_args = 0
  33 0000 10B5     		push	{r4, lr}
  34              		.cfi_def_cfa_offset 8
  35              		.cfi_offset 4, -8
  36              		.cfi_offset 14, -4
  37 0002 174B     		ldr	r3, .L6
  38              	.LBB2:
  39              		.loc 1 50 0
  40 0004 174C     		ldr	r4, .L6+4
  41              	.LBE2:
  42              		.loc 1 30 0
  43 0006 1B68     		ldr	r3, [r3]
  44 0008 9AB0     		sub	sp, sp, #104
  45              		.cfi_def_cfa_offset 112
  46              		.loc 1 30 0
  47 000a 1993     		str	r3, [sp, #100]
  48              		.loc 1 35 0
  49 000c FFF7FEFF 		bl	halInit
  50              	.LVL0:
  51              		.loc 1 36 0
  52 0010 FFF7FEFF 		bl	chSysInit
  53              	.LVL1:
  54              		.loc 1 37 0
  55 0014 FFF7FEFF 		bl	mpu_init
  56              	.LVL2:
  57              		.loc 1 39 0
ARM GAS  /tmp/cckbUa1y.s 			page 2


  58 0018 FFF7FEFF 		bl	serial_start
  59              	.LVL3:
  60              		.loc 1 40 0
  61 001c FFF7FEFF 		bl	motors_init
  62              	.LVL4:
  63              	.L2:
  64              	.LBB3:
  65              		.loc 1 49 0 discriminator 1
  66 0020 4FF4FA70 		mov	r0, #500
  67 0024 FFF7FEFF 		bl	left_motor_set_speed
  68              	.LVL5:
  69              		.loc 1 50 0 discriminator 1
  70 0028 2046     		mov	r0, r4
  71 002a FFF7FEFF 		bl	right_motor_set_speed
  72              	.LVL6:
  73              		.loc 1 51 0 discriminator 1
  74 002e 4FF47A70 		mov	r0, #1000
  75 0032 FFF7FEFF 		bl	chThdSleep
  76              	.LVL7:
  77              		.loc 1 57 0 discriminator 1
  78 0036 0A22     		movs	r2, #10
  79 0038 0B49     		ldr	r1, .L6+8
  80 003a 6846     		mov	r0, sp
  81 003c FFF7FEFF 		bl	sprintf
  82              	.LVL8:
  83              		.loc 1 58 0 discriminator 1
  84 0040 1421     		movs	r1, #20
  85 0042 6846     		mov	r0, sp
  86 0044 FFF7FEFF 		bl	e_send_uart1_char
  87              	.LVL9:
  88              		.loc 1 61 0 discriminator 1
  89 0048 2046     		mov	r0, r4
  90 004a FFF7FEFF 		bl	left_motor_set_speed
  91              	.LVL10:
  92              		.loc 1 62 0 discriminator 1
  93 004e 4FF4FA70 		mov	r0, #500
  94 0052 FFF7FEFF 		bl	right_motor_set_speed
  95              	.LVL11:
  96              		.loc 1 63 0 discriminator 1
  97 0056 4FF47A70 		mov	r0, #1000
  98 005a FFF7FEFF 		bl	chThdSleep
  99              	.LVL12:
 100 005e DFE7     		b	.L2
 101              	.L7:
 102              		.align	2
 103              	.L6:
 104 0060 00000000 		.word	__stack_chk_guard
 105 0064 0CFEFFFF 		.word	-500
 106 0068 00000000 		.word	.LC0
 107              	.LBE3:
 108              		.cfi_endproc
 109              	.LFE259:
 110              		.size	main, .-main
 111              		.section	.text.__stack_chk_fail,"ax",%progbits
 112              		.align	1
 113              		.p2align 4,,15
 114              		.global	__stack_chk_fail
ARM GAS  /tmp/cckbUa1y.s 			page 3


 115              		.syntax unified
 116              		.thumb
 117              		.thumb_func
 118              		.fpu fpv4-sp-d16
 119              		.type	__stack_chk_fail, %function
 120              	__stack_chk_fail:
 121              	.LFB260:
 122              		.loc 1 72 0
 123              		.cfi_startproc
 124              		@ args = 0, pretend = 0, frame = 8
 125              		@ frame_needed = 0, uses_anonymous_args = 0
 126 0000 00B5     		push	{lr}
 127              		.cfi_def_cfa_offset 4
 128              		.cfi_offset 14, -4
 129 0002 084B     		ldr	r3, .L13
 130 0004 83B0     		sub	sp, sp, #12
 131              		.cfi_def_cfa_offset 16
 132              		.loc 1 72 0
 133 0006 1A68     		ldr	r2, [r3]
 134 0008 0192     		str	r2, [sp, #4]
 135              		.loc 1 73 0
 136 000a 019A     		ldr	r2, [sp, #4]
 137 000c 1B68     		ldr	r3, [r3]
 138 000e 9A42     		cmp	r2, r3
 139 0010 05D1     		bne	.L12
 140 0012 0548     		ldr	r0, .L13+4
 141              		.loc 1 74 0
 142 0014 03B0     		add	sp, sp, #12
 143              		.cfi_remember_state
 144              		.cfi_def_cfa_offset 4
 145              		@ sp needed
 146 0016 5DF804EB 		ldr	lr, [sp], #4
 147              		.cfi_restore 14
 148              		.cfi_def_cfa_offset 0
 149              		.loc 1 73 0
 150 001a FFF7FEBF 		b	chSysHalt
 151              	.LVL13:
 152              	.L12:
 153              		.cfi_restore_state
 154 001e FFF7FEFF 		bl	__stack_chk_fail
 155              	.LVL14:
 156              	.L14:
 157 0022 00BF     		.align	2
 158              	.L13:
 159 0024 00000000 		.word	__stack_chk_guard
 160 0028 00000000 		.word	.LC1
 161              		.cfi_endproc
 162              	.LFE260:
 163              		.size	__stack_chk_fail, .-__stack_chk_fail
 164              		.global	__stack_chk_guard
 165              		.section	.data.__stack_chk_guard,"aw",%progbits
 166              		.align	2
 167              		.type	__stack_chk_guard, %object
 168              		.size	__stack_chk_guard, 4
 169              	__stack_chk_guard:
 170 0000 96E3DEE2 		.word	-488709226
 171              		.section	.rodata.__stack_chk_fail.str1.4,"aMS",%progbits,1
ARM GAS  /tmp/cckbUa1y.s 			page 4


 172              		.align	2
 173              	.LC1:
 174 0000 53746163 		.ascii	"Stack smashing detected\000"
 174      6B20736D 
 174      61736869 
 174      6E672064 
 174      65746563 
 175              		.section	.rodata.main.str1.4,"aMS",%progbits,1
 176              		.align	2
 177              	.LC0:
 178 0000 5072696E 		.ascii	"Printing number %d!\012\000"
 178      74696E67 
 178      206E756D 
 178      62657220 
 178      2564210A 
 179              		.text
 180              	.Letext0:
 181              		.file 2 "/home/uos/Documents/N/epuck/Eclipse_e-puck2/Tools/gcc-arm-none-eabi-7-2017-q4-major/arm-n
 182              		.file 3 "/home/uos/Documents/N/epuck/Eclipse_e-puck2/Tools/gcc-arm-none-eabi-7-2017-q4-major/lib/g
 183              		.file 4 "/home/uos/Documents/N/epuck/Eclipse_e-puck2/Tools/gcc-arm-none-eabi-7-2017-q4-major/arm-n
 184              		.file 5 "/home/uos/Documents/N/epuck/Eclipse_e-puck2/Tools/gcc-arm-none-eabi-7-2017-q4-major/arm-n
 185              		.file 6 "/home/uos/Documents/N/epuck/Eclipse_e-puck2/Tools/gcc-arm-none-eabi-7-2017-q4-major/arm-n
 186              		.file 7 "/home/uos/Documents/N/epuck/Eclipse_e-puck2/Tools/gcc-arm-none-eabi-7-2017-q4-major/arm-n
 187              		.file 8 "/home/uos/Documents/N/epuck/Eclipse_e-puck2/Tools/gcc-arm-none-eabi-7-2017-q4-major/arm-n
 188              		.file 9 "/home/uos/Documents/N/epuck/Eclipse_e-puck2/Tools/gcc-arm-none-eabi-7-2017-q4-major/arm-n
 189              		.file 10 "../e-puck2_main-processor/ChibiOS//os/rt/ports/ARMCMx/compilers/GCC/chtypes.h"
 190              		.file 11 "../e-puck2_main-processor/ChibiOS//os/rt/include/chsystypes.h"
 191              		.file 12 "../e-puck2_main-processor/ChibiOS//os/rt/include/chschd.h"
 192              		.file 13 "../e-puck2_main-processor/ChibiOS//os/ext/CMSIS/include/core_cm4.h"
 193              		.file 14 "../e-puck2_main-processor/ChibiOS//os/ext/CMSIS/ST/system_stm32f4xx.h"
 194              		.file 15 "../e-puck2_main-processor/ChibiOS//os/ext/CMSIS/ST/stm32f407xx.h"
 195              		.file 16 "../e-puck2_main-processor/ChibiOS//os/rt/ports/ARMCMx/chcore.h"
 196              		.file 17 "../e-puck2_main-processor/ChibiOS//os/rt/ports/ARMCMx/chcore_v7m.h"
 197              		.file 18 "../e-puck2_main-processor/ChibiOS//os/rt/include/chdebug.h"
 198              		.file 19 "../e-puck2_main-processor/ChibiOS//os/rt/include/chtm.h"
 199              		.file 20 "../e-puck2_main-processor/ChibiOS//os/rt/include/chstats.h"
 200              		.file 21 "../e-puck2_main-processor/ChibiOS//os/rt/include/chsem.h"
 201              		.file 22 "../e-puck2_main-processor/ChibiOS//os/rt/include/chmtx.h"
 202              		.file 23 "../e-puck2_main-processor/ChibiOS//os/rt/include/chregistry.h"
 203              		.file 24 "../e-puck2_main-processor/ChibiOS//os/rt/include/chevents.h"
 204              		.file 25 "../e-puck2_main-processor/ChibiOS//os/rt/include/chqueues.h"
 205              		.file 26 "../e-puck2_main-processor/ChibiOS//os/hal/ports/STM32/STM32F4xx/stm32_dma.h"
 206              		.file 27 "../e-puck2_main-processor/ChibiOS//os/hal/include/hal_ioblock.h"
 207              		.file 28 "../e-puck2_main-processor/ChibiOS//os/hal/ports/STM32/LLD/GPIOv2/pal_lld.h"
 208              		.file 29 "../e-puck2_main-processor/ChibiOS//os/hal/include/adc.h"
 209              		.file 30 "../e-puck2_main-processor/ChibiOS//os/hal/ports/STM32/STM32F4xx/adc_lld.h"
 210              		.file 31 "../e-puck2_main-processor/ChibiOS//os/hal/include/can.h"
 211              		.file 32 "../e-puck2_main-processor/ChibiOS//os/hal/ports/STM32/LLD/can_lld.h"
 212              		.file 33 "../e-puck2_main-processor/ChibiOS//os/hal/include/dac.h"
 213              		.file 34 "../e-puck2_main-processor/ChibiOS//os/hal/ports/STM32/LLD/DACv1/dac_lld.h"
 214              		.file 35 "../e-puck2_main-processor/ChibiOS//os/hal/include/ext.h"
 215              		.file 36 "../e-puck2_main-processor/ChibiOS//os/hal/ports/STM32/LLD/ext_lld.h"
 216              		.file 37 "../e-puck2_main-processor/ChibiOS//os/hal/include/gpt.h"
 217              		.file 38 "../e-puck2_main-processor/ChibiOS//os/hal/ports/STM32/LLD/TIMv1/gpt_lld.h"
 218              		.file 39 "../e-puck2_main-processor/ChibiOS//os/hal/ports/STM32/LLD/TIMv1/stm32_tim.h"
 219              		.file 40 "../e-puck2_main-processor/ChibiOS//os/hal/include/i2c.h"
 220              		.file 41 "../e-puck2_main-processor/ChibiOS//os/hal/ports/STM32/LLD/I2Cv1/i2c_lld.h"
ARM GAS  /tmp/cckbUa1y.s 			page 5


 221              		.file 42 "../e-puck2_main-processor/ChibiOS//os/hal/include/i2s.h"
 222              		.file 43 "../e-puck2_main-processor/ChibiOS//os/hal/ports/STM32/LLD/SPIv1/i2s_lld.h"
 223              		.file 44 "../e-puck2_main-processor/ChibiOS//os/hal/include/pwm.h"
 224              		.file 45 "../e-puck2_main-processor/ChibiOS//os/hal/ports/STM32/LLD/TIMv1/pwm_lld.h"
 225              		.file 46 "../e-puck2_main-processor/ChibiOS//os/hal/include/serial.h"
 226              		.file 47 "../e-puck2_main-processor/ChibiOS//os/hal/ports/STM32/LLD/USARTv1/serial_lld.h"
 227              		.file 48 "../e-puck2_main-processor/ChibiOS//os/hal/include/sdc.h"
 228              		.file 49 "../e-puck2_main-processor/ChibiOS//os/hal/ports/STM32/LLD/sdc_lld.h"
 229              		.file 50 "../e-puck2_main-processor/ChibiOS//os/hal/include/spi.h"
 230              		.file 51 "../e-puck2_main-processor/ChibiOS//os/hal/ports/STM32/LLD/SPIv1/spi_lld.h"
 231              		.file 52 "../e-puck2_main-processor/ChibiOS//os/hal/include/usb.h"
 232              		.file 53 "../e-puck2_main-processor/ChibiOS//os/hal/ports/STM32/LLD/OTGv1/usb_lld.h"
 233              		.file 54 "../e-puck2_main-processor/ChibiOS//os/hal/ports/STM32/LLD/OTGv1/stm32_otg.h"
 234              		.file 55 "../e-puck2_main-processor/src/motors.h"
 235              		.file 56 "/home/uos/Documents/N/epuck/Eclipse_e-puck2/Tools/gcc-arm-none-eabi-7-2017-q4-major/arm-
 236              		.file 57 "../e-puck2_main-processor/src/msgbus/messagebus.h"
 237              		.file 58 "../e-puck2_main-processor/src/parameter/parameter.h"
 238              		.file 59 "./main.h"
 239              		.file 60 "../e-puck2_main-processor/ChibiOS//os/rt/include/chsys.h"
 240              		.file 61 "../e-puck2_main-processor/ChibiOS//os/rt/include/chthreads.h"
 241              		.file 62 "/home/uos/Documents/N/epuck/Eclipse_e-puck2/Tools/gcc-arm-none-eabi-7-2017-q4-major/arm-
 242              		.file 63 "../e-puck2_main-processor/src/epuck1x/uart/e_uart_char.h"
 243              		.file 64 "../e-puck2_main-processor/ChibiOS//os/hal/include/hal.h"
 244              		.file 65 "../e-puck2_main-processor/src/memory_protection.h"
 245              		.file 66 "../e-puck2_main-processor/src/serial_comm.h"